target datalayout = "e-m:e-p270:32:32-p271:32:32-p272:64:64-i64:64-i128:128-f80:128-n8:16:32:64-S128"
target triple = "x86_64-pc-linux-gnu"

%class.vector.0 = type { ptr }
%class.obj_mark = type { [8 x i8], %class.bit_vector }
%class.bit_vector = type { i32, i32, ptr }
%class.ref_vector = type { %class.ref_vector_core }
%class.ref_vector_core = type { %class.ref_manager_wrapper, %class.ptr_vector }
%class.ref_manager_wrapper = type { ptr }
%class.ptr_vector = type { %class.vector.0 }
%"class.subterms_postorder::iterator" = type { i8, %class.ref_vector, %class.obj_mark, %class.obj_mark }

; Function Attrs: mustprogress uwtable
define hidden noundef nonnull align 8 dereferenceable(72) ptr @_ZN18subterms_postorder8iteratorppEv(ptr noundef nonnull align 8 dereferenceable(72) %0) #4 align 2 {
  %2 = alloca ptr, align 8
  store ptr %0, ptr %2, align 8, !tbaa !111
  %3 = load ptr, ptr %2, align 8
  call void @_ZN18subterms_postorder8iterator4nextEv(ptr noundef nonnull align 8 dereferenceable(72) %3)
  ret ptr %3
}

; Function Attrs: mustprogress uwtable
define hidden void @_ZN18subterms_postorder8iteratorppEi(ptr dead_on_unwind noalias writable sret(%"class.subterms_postorder::iterator") align 8 %0, ptr noundef nonnull align 8 dereferenceable(72) %1, i32 noundef %2) #4 align 2 personality ptr @__gxx_personality_v0 {
  %4 = alloca ptr, align 8
  %5 = alloca ptr, align 8
  %6 = alloca i32, align 4
  %7 = alloca i1, align 1
  %8 = alloca ptr, align 8
  %9 = alloca i32, align 4
  store ptr %0, ptr %4, align 8
  store ptr %1, ptr %5, align 8, !tbaa !111
  store i32 %2, ptr %6, align 4, !tbaa !17
  %10 = load ptr, ptr %5, align 8
  store i1 false, ptr %7, align 1
  call void @_ZN18subterms_postorder8iteratorC2ERKS0_(ptr noundef nonnull align 8 dereferenceable(72) %0, ptr noundef nonnull align 8 dereferenceable(72) %10)
  %11 = invoke noundef nonnull align 8 dereferenceable(72) ptr @_ZN18subterms_postorder8iteratorppEv(ptr noundef nonnull align 8 dereferenceable(72) %10)
          to label %12 unwind label %14

12:                                               ; preds = %3
  store i1 true, ptr %7, align 1
  %13 = load i1, ptr %7, align 1
  br i1 %13, label %19, label %18

14:                                               ; preds = %3
  %15 = landingpad { ptr, i32 }
          cleanup
  %16 = extractvalue { ptr, i32 } %15, 0
  store ptr %16, ptr %8, align 8
  %17 = extractvalue { ptr, i32 } %15, 1
  store i32 %17, ptr %9, align 4
  call void @_ZN18subterms_postorder8iteratorD2Ev(ptr noundef nonnull align 8 dereferenceable(72) %0) #3
  br label %20

18:                                               ; preds = %12
  call void @_ZN18subterms_postorder8iteratorD2Ev(ptr noundef nonnull align 8 dereferenceable(72) %0) #3
  br label %19

19:                                               ; preds = %18, %12
  ret void

20:                                               ; preds = %14
  %21 = load ptr, ptr %8, align 8
  %22 = load i32, ptr %9, align 4
  %23 = insertvalue { ptr, i32 } poison, ptr %21, 0
  %24 = insertvalue { ptr, i32 } %23, i32 %22, 1
  resume { ptr, i32 } %24
}