; Function Attrs: mustprogress uwtable
define hidden void @_ZN18subterms_postorder8iteratorppEi(ptr dead_on_unwind noalias nonnull writable sret(%"class.subterms_postorder::iterator") align 8 %0, ptr noundef nonnull align 8 dereferenceable(72) %1, i32 noundef %2) local_unnamed_addr #3 align 2 personality ptr @__gxx_personality_v0 {
  tail call void @_ZN18subterms_postorder8iteratorC2ERKS0_(ptr noundef nonnull align 8 dereferenceable(72) %0, ptr noundef nonnull align 8 dereferenceable(72) %1)
  invoke void @_ZN18subterms_postorder8iterator4nextEv(ptr noundef nonnull align 8 dereferenceable(72) %1)
          to label %_ZN18subterms_postorder8iteratorppEv.exit unwind label %4

4:                                                ; preds = %3
  %5 = landingpad { ptr, i32 }
          cleanup
  tail call void @_ZN18subterms_postorder8iteratorD2Ev(ptr noundef nonnull align 8 dereferenceable(72) %0) #24
  resume { ptr, i32 } %5

_ZN18subterms_postorder8iteratorppEv.exit:        ; preds = %3
  ret void
}